; ModuleID = '21/1466.c'
source_filename = "21/1466.c"
target datalayout = "e-m:e-p270:32:32-p271:32:32-p272:64:64-i64:64-f80:128-n8:16:32:64-S128"
target triple = "x86_64-pc-linux-gnu"

@.str = private unnamed_addr constant [3 x i8] c"%d\00", align 1
@.str.1 = private unnamed_addr constant [4 x i8] c",%d\00", align 1
@.str.2 = private unnamed_addr constant [2 x i8] c"\0A\00", align 1

; Function Attrs: noinline nounwind uwtable
define dso_local i32 @main(i32 %0, i8** %1) #0 {
  %3 = alloca i32, align 4
  %4 = alloca i32, align 4
  %5 = alloca i8**, align 8
  %6 = alloca i32, align 4
  %7 = alloca i32, align 4
  %8 = alloca [300 x i32], align 16
  %9 = alloca i32, align 4
  %10 = alloca i32, align 4
  %11 = alloca i32, align 4
  %12 = alloca i32, align 4
  %13 = alloca double, align 8
  %14 = alloca [300 x double], align 16
  %15 = alloca double, align 8
  store i32 0, i32* %3, align 4
  store i32 %0, i32* %4, align 4
  store i8** %1, i8*** %5, align 8
  store i32 0, i32* %9, align 4
  %16 = call i32 (i8*, ...) @__isoc99_scanf(i8* getelementptr inbounds ([3 x i8], [3 x i8]* @.str, i64 0, i64 0), i32* %7)
  store i32 0, i32* %6, align 4
  br label %17

17:                                               ; preds = %32, %2
  %18 = load i32, i32* %6, align 4
  %19 = load i32, i32* %7, align 4
  %20 = icmp slt i32 %18, %19
  br i1 %20, label %21, label %35

21:                                               ; preds = %17
  %22 = load i32, i32* %6, align 4
  %23 = sext i32 %22 to i64
  %24 = getelementptr inbounds [300 x i32], [300 x i32]* %8, i64 0, i64 %23
  %25 = call i32 (i8*, ...) @__isoc99_scanf(i8* getelementptr inbounds ([3 x i8], [3 x i8]* @.str, i64 0, i64 0), i32* %24)
  %26 = load i32, i32* %6, align 4
  %27 = sext i32 %26 to i64
  %28 = getelementptr inbounds [300 x i32], [300 x i32]* %8, i64 0, i64 %27
  %29 = load i32, i32* %28, align 4
  %30 = load i32, i32* %9, align 4
  %31 = add nsw i32 %30, %29
  store i32 %31, i32* %9, align 4
  br label %32

32:                                               ; preds = %21
  %33 = load i32, i32* %6, align 4
  %34 = add nsw i32 %33, 1
  store i32 %34, i32* %6, align 4
  br label %17

35:                                               ; preds = %17
  %36 = load i32, i32* %9, align 4
  %37 = sitofp i32 %36 to double
  %38 = load i32, i32* %7, align 4
  %39 = sitofp i32 %38 to double
  %40 = fdiv double %37, %39
  store double %40, double* %13, align 8
  store i32 0, i32* %6, align 4
  br label %41

41:                                               ; preds = %76, %35
  %42 = load i32, i32* %6, align 4
  %43 = load i32, i32* %7, align 4
  %44 = icmp slt i32 %42, %43
  br i1 %44, label %45, label %79

45:                                               ; preds = %41
  %46 = load i32, i32* %6, align 4
  %47 = sext i32 %46 to i64
  %48 = getelementptr inbounds [300 x i32], [300 x i32]* %8, i64 0, i64 %47
  %49 = load i32, i32* %48, align 4
  %50 = sitofp i32 %49 to double
  %51 = load double, double* %13, align 8
  %52 = fcmp olt double %50, %51
  br i1 %52, label %53, label %64

53:                                               ; preds = %45
  %54 = load double, double* %13, align 8
  %55 = load i32, i32* %6, align 4
  %56 = sext i32 %55 to i64
  %57 = getelementptr inbounds [300 x i32], [300 x i32]* %8, i64 0, i64 %56
  %58 = load i32, i32* %57, align 4
  %59 = sitofp i32 %58 to double
  %60 = fsub double %54, %59
  %61 = load i32, i32* %6, align 4
  %62 = sext i32 %61 to i64
  %63 = getelementptr inbounds [300 x double], [300 x double]* %14, i64 0, i64 %62
  store double %60, double* %63, align 8
  br label %75

64:                                               ; preds = %45
  %65 = load i32, i32* %6, align 4
  %66 = sext i32 %65 to i64
  %67 = getelementptr inbounds [300 x i32], [300 x i32]* %8, i64 0, i64 %66
  %68 = load i32, i32* %67, align 4
  %69 = sitofp i32 %68 to double
  %70 = load double, double* %13, align 8
  %71 = fsub double %69, %70
  %72 = load i32, i32* %6, align 4
  %73 = sext i32 %72 to i64
  %74 = getelementptr inbounds [300 x double], [300 x double]* %14, i64 0, i64 %73
  store double %71, double* %74, align 8
  br label %75

75:                                               ; preds = %64, %53
  br label %76

76:                                               ; preds = %75
  %77 = load i32, i32* %6, align 4
  %78 = add nsw i32 %77, 1
  store i32 %78, i32* %6, align 4
  br label %41

79:                                               ; preds = %41
  store i32 0, i32* %6, align 4
  br label %80

80:                                               ; preds = %138, %79
  %81 = load i32, i32* %6, align 4
  %82 = load i32, i32* %7, align 4
  %83 = sub nsw i32 %82, 1
  %84 = icmp slt i32 %81, %83
  br i1 %84, label %85, label %141

85:                                               ; preds = %80
  %86 = load i32, i32* %6, align 4
  %87 = add nsw i32 %86, 1
  store i32 %87, i32* %10, align 4
  br label %88

88:                                               ; preds = %134, %85
  %89 = load i32, i32* %10, align 4
  %90 = load i32, i32* %7, align 4
  %91 = icmp slt i32 %89, %90
  br i1 %91, label %92, label %137

92:                                               ; preds = %88
  %93 = load i32, i32* %10, align 4
  %94 = sext i32 %93 to i64
  %95 = getelementptr inbounds [300 x double], [300 x double]* %14, i64 0, i64 %94
  %96 = load double, double* %95, align 8
  %97 = load i32, i32* %6, align 4
  %98 = sext i32 %97 to i64
  %99 = getelementptr inbounds [300 x double], [300 x double]* %14, i64 0, i64 %98
  %100 = load double, double* %99, align 8
  %101 = fcmp ogt double %96, %100
  br i1 %101, label %102, label %133

102:                                              ; preds = %92
  %103 = load i32, i32* %10, align 4
  %104 = sext i32 %103 to i64
  %105 = getelementptr inbounds [300 x double], [300 x double]* %14, i64 0, i64 %104
  %106 = load double, double* %105, align 8
  store double %106, double* %15, align 8
  %107 = load i32, i32* %6, align 4
  %108 = sext i32 %107 to i64
  %109 = getelementptr inbounds [300 x double], [300 x double]* %14, i64 0, i64 %108
  %110 = load double, double* %109, align 8
  %111 = load i32, i32* %10, align 4
  %112 = sext i32 %111 to i64
  %113 = getelementptr inbounds [300 x double], [300 x double]* %14, i64 0, i64 %112
  store double %110, double* %113, align 8
  %114 = load double, double* %15, align 8
  %115 = load i32, i32* %6, align 4
  %116 = sext i32 %115 to i64
  %117 = getelementptr inbounds [300 x double], [300 x double]* %14, i64 0, i64 %116
  store double %114, double* %117, align 8
  %118 = load i32, i32* %10, align 4
  %119 = sext i32 %118 to i64
  %120 = getelementptr inbounds [300 x i32], [300 x i32]* %8, i64 0, i64 %119
  %121 = load i32, i32* %120, align 4
  store i32 %121, i32* %11, align 4
  %122 = load i32, i32* %6, align 4
  %123 = sext i32 %122 to i64
  %124 = getelementptr inbounds [300 x i32], [300 x i32]* %8, i64 0, i64 %123
  %125 = load i32, i32* %124, align 4
  %126 = load i32, i32* %10, align 4
  %127 = sext i32 %126 to i64
  %128 = getelementptr inbounds [300 x i32], [300 x i32]* %8, i64 0, i64 %127
  store i32 %125, i32* %128, align 4
  %129 = load i32, i32* %11, align 4
  %130 = load i32, i32* %6, align 4
  %131 = sext i32 %130 to i64
  %132 = getelementptr inbounds [300 x i32], [300 x i32]* %8, i64 0, i64 %131
  store i32 %129, i32* %132, align 4
  br label %133

133:                                              ; preds = %102, %92
  br label %134

134:                                              ; preds = %133
  %135 = load i32, i32* %10, align 4
  %136 = add nsw i32 %135, 1
  store i32 %136, i32* %10, align 4
  br label %88

137:                                              ; preds = %88
  br label %138

138:                                              ; preds = %137
  %139 = load i32, i32* %6, align 4
  %140 = add nsw i32 %139, 1
  store i32 %140, i32* %6, align 4
  br label %80

141:                                              ; preds = %80
  %142 = load i32, i32* %6, align 4
  %143 = sext i32 %142 to i64
  %144 = getelementptr inbounds [300 x double], [300 x double]* %14, i64 0, i64 %143
  %145 = load double, double* %144, align 8
  %146 = load i32, i32* %6, align 4
  %147 = add nsw i32 %146, 1
  %148 = sext i32 %147 to i64
  %149 = getelementptr inbounds [300 x double], [300 x double]* %14, i64 0, i64 %148
  %150 = load double, double* %149, align 8
  %151 = fcmp oeq double %145, %150
  br i1 %151, label %152, label %179

152:                                              ; preds = %141
  %153 = load i32, i32* %6, align 4
  %154 = sext i32 %153 to i64
  %155 = getelementptr inbounds [300 x i32], [300 x i32]* %8, i64 0, i64 %154
  %156 = load i32, i32* %155, align 4
  %157 = load i32, i32* %6, align 4
  %158 = add nsw i32 %157, 1
  %159 = sext i32 %158 to i64
  %160 = getelementptr inbounds [300 x i32], [300 x i32]* %8, i64 0, i64 %159
  %161 = load i32, i32* %160, align 4
  %162 = icmp sgt i32 %156, %161
  br i1 %162, label %163, label %179

163:                                              ; preds = %152
  %164 = load i32, i32* %6, align 4
  %165 = sext i32 %164 to i64
  %166 = getelementptr inbounds [300 x i32], [300 x i32]* %8, i64 0, i64 %165
  %167 = load i32, i32* %166, align 4
  store i32 %167, i32* %12, align 4
  %168 = load i32, i32* %10, align 4
  %169 = sext i32 %168 to i64
  %170 = getelementptr inbounds [300 x i32], [300 x i32]* %8, i64 0, i64 %169
  %171 = load i32, i32* %170, align 4
  %172 = load i32, i32* %6, align 4
  %173 = sext i32 %172 to i64
  %174 = getelementptr inbounds [300 x i32], [300 x i32]* %8, i64 0, i64 %173
  store i32 %171, i32* %174, align 4
  %175 = load i32, i32* %12, align 4
  %176 = load i32, i32* %10, align 4
  %177 = sext i32 %176 to i64
  %178 = getelementptr inbounds [300 x i32], [300 x i32]* %8, i64 0, i64 %177
  store i32 %175, i32* %178, align 4
  br label %179

179:                                              ; preds = %163, %152, %141
  %180 = getelementptr inbounds [300 x i32], [300 x i32]* %8, i64 0, i64 0
  %181 = load i32, i32* %180, align 16
  %182 = call i32 (i8*, ...) @printf(i8* getelementptr inbounds ([3 x i8], [3 x i8]* @.str, i64 0, i64 0), i32 %181)
  store i32 0, i32* %6, align 4
  br label %183

183:                                              ; preds = %246, %179
  %184 = load i32, i32* %6, align 4
  %185 = load i32, i32* %7, align 4
  %186 = sub nsw i32 %185, 1
  %187 = icmp slt i32 %184, %186
  br i1 %187, label %188, label %249

188:                                              ; preds = %183
  %189 = load i32, i32* %6, align 4
  %190 = sext i32 %189 to i64
  %191 = getelementptr inbounds [300 x double], [300 x double]* %14, i64 0, i64 %190
  %192 = load double, double* %191, align 8
  %193 = load i32, i32* %6, align 4
  %194 = add nsw i32 %193, 1
  %195 = sext i32 %194 to i64
  %196 = getelementptr inbounds [300 x double], [300 x double]* %14, i64 0, i64 %195
  %197 = load double, double* %196, align 8
  %198 = fcmp oeq double %192, %197
  br i1 %198, label %199, label %226

199:                                              ; preds = %188
  %200 = load i32, i32* %6, align 4
  %201 = sext i32 %200 to i64
  %202 = getelementptr inbounds [300 x i32], [300 x i32]* %8, i64 0, i64 %201
  %203 = load i32, i32* %202, align 4
  %204 = load i32, i32* %6, align 4
  %205 = add nsw i32 %204, 1
  %206 = sext i32 %205 to i64
  %207 = getelementptr inbounds [300 x i32], [300 x i32]* %8, i64 0, i64 %206
  %208 = load i32, i32* %207, align 4
  %209 = icmp sgt i32 %203, %208
  br i1 %209, label %210, label %226

210:                                              ; preds = %199
  %211 = load i32, i32* %6, align 4
  %212 = sext i32 %211 to i64
  %213 = getelementptr inbounds [300 x i32], [300 x i32]* %8, i64 0, i64 %212
  %214 = load i32, i32* %213, align 4
  store i32 %214, i32* %12, align 4
  %215 = load i32, i32* %10, align 4
  %216 = sext i32 %215 to i64
  %217 = getelementptr inbounds [300 x i32], [300 x i32]* %8, i64 0, i64 %216
  %218 = load i32, i32* %217, align 4
  %219 = load i32, i32* %6, align 4
  %220 = sext i32 %219 to i64
  %221 = getelementptr inbounds [300 x i32], [300 x i32]* %8, i64 0, i64 %220
  store i32 %218, i32* %221, align 4
  %222 = load i32, i32* %12, align 4
  %223 = load i32, i32* %10, align 4
  %224 = sext i32 %223 to i64
  %225 = getelementptr inbounds [300 x i32], [300 x i32]* %8, i64 0, i64 %224
  store i32 %222, i32* %225, align 4
  br label %239

226:                                              ; preds = %199, %188
  %227 = load i32, i32* %6, align 4
  %228 = sext i32 %227 to i64
  %229 = getelementptr inbounds [300 x double], [300 x double]* %14, i64 0, i64 %228
  %230 = load double, double* %229, align 8
  %231 = load i32, i32* %6, align 4
  %232 = add nsw i32 %231, 1
  %233 = sext i32 %232 to i64
  %234 = getelementptr inbounds [300 x double], [300 x double]* %14, i64 0, i64 %233
  %235 = load double, double* %234, align 8
  %236 = fcmp ogt double %230, %235
  br i1 %236, label %237, label %238

237:                                              ; preds = %226
  br label %249

238:                                              ; preds = %226
  br label %239

239:                                              ; preds = %238, %210
  %240 = load i32, i32* %6, align 4
  %241 = add nsw i32 %240, 1
  %242 = sext i32 %241 to i64
  %243 = getelementptr inbounds [300 x i32], [300 x i32]* %8, i64 0, i64 %242
  %244 = load i32, i32* %243, align 4
  %245 = call i32 (i8*, ...) @printf(i8* getelementptr inbounds ([4 x i8], [4 x i8]* @.str.1, i64 0, i64 0), i32 %244)
  br label %246

246:                                              ; preds = %239
  %247 = load i32, i32* %6, align 4
  %248 = add nsw i32 %247, 1
  store i32 %248, i32* %6, align 4
  br label %183

249:                                              ; preds = %237, %183
  %250 = call i32 (i8*, ...) @printf(i8* getelementptr inbounds ([2 x i8], [2 x i8]* @.str.2, i64 0, i64 0))
  ret i32 0
}

declare dso_local i32 @__isoc99_scanf(i8*, ...) #1

declare dso_local i32 @printf(i8*, ...) #1


!llvm.module.flags = !{!0}
!llvm.ident = !{!1}

!0 = !{i32 1, !"wchar_size", i32 4}
!1 = !{!"clang version 10.0.0-4ubuntu1 "}
